target datalayout = "e-m:e-p270:32:32-p271:32:32-p272:64:64-i64:64-i128:128-f80:128-n8:16:32:64-S128"
target triple = "x86_64-pc-linux-gnu"

%"class.std::__cxx11::basic_string" = type { %"struct.std::__cxx11::basic_string<char>::_Alloc_hider", i64, %union.anon }
%"struct.std::__cxx11::basic_string<char>::_Alloc_hider" = type { ptr }
%union.anon = type { i64, [8 x i8] }
%class.App = type { i8, i8, i8, i64, i64, float, float, %"class.std::__cxx11::basic_string", i32, [4 x i8], %"class.cv::VideoCapture", %"class.cv::Mat", %"class.cv::Mat", %"class.opencl::PlatformInfo", %"class.opencl::DeviceInfo", %"class.std::vector.12", ptr, ptr, ptr, ptr, ptr, ptr, ptr, ptr }
%"class.cv::VideoCapture" = type <{ ptr, %"struct.cv::Ptr", %"struct.cv::Ptr.0", i8, [7 x i8] }>
%"struct.cv::Ptr" = type { %"class.std::shared_ptr" }
%"class.std::shared_ptr" = type { %"class.std::__shared_ptr" }
%"class.std::__shared_ptr" = type { ptr, %"class.std::__shared_count" }
%"class.std::__shared_count" = type { ptr }
%"struct.cv::Ptr.0" = type { %"class.std::shared_ptr.1" }
%"class.std::shared_ptr.1" = type { %"class.std::__shared_ptr.2" }
%"class.std::__shared_ptr.2" = type { ptr, %"class.std::__shared_count" }
%"class.cv::Mat" = type { i32, i32, i32, i32, ptr, ptr, ptr, ptr, ptr, ptr, %"struct.cv::MatSize", %"struct.cv::MatStep" }
%"struct.cv::MatSize" = type { ptr }
%"struct.cv::MatStep" = type { ptr, [2 x i64] }
%"class.opencl::PlatformInfo" = type { %"class.std::__cxx11::basic_string", %"class.std::__cxx11::basic_string", %"class.std::__cxx11::basic_string", %"class.std::__cxx11::basic_string", %"class.std::__cxx11::basic_string" }
%"class.opencl::DeviceInfo" = type <{ i64, i32, i32, i32, [4 x i8], %"class.std::vector", i64, i32, i32, i32, i32, i32, i32, i32, i32, i32, i32, i32, i32, i32, i32, i32, i32, i64, i32, i32, i32, i32, i64, i64, i64, i64, i64, i64, i64, i32, i32, i32, i32, i32, i32, i64, i32, [4 x i8], i64, i64, i32, i32, i64, i64, i64, i32, [4 x i8], i64, i64, i32, [4 x i8], i64, i32, i32, i64, i32, i32, i32, i32, i64, i64, i64, i64, i32, i32, i32, i32, %"class.std::__cxx11::basic_string", ptr, %"class.std::__cxx11::basic_string", %"class.std::__cxx11::basic_string", %"class.std::__cxx11::basic_string", %"class.std::__cxx11::basic_string", %"class.std::__cxx11::basic_string", %"class.std::__cxx11::basic_string", %"class.std::__cxx11::basic_string", i64, i32, [4 x i8], ptr, i32, [4 x i8], %"class.std::vector.7", i64, %"class.std::vector.7", i32, [4 x i8] }>
%"class.std::vector" = type { %"struct.std::_Vector_base" }
%"struct.std::_Vector_base" = type { %"struct.std::_Vector_base<unsigned long, std::allocator<unsigned long>>::_Vector_impl" }
%"struct.std::_Vector_base<unsigned long, std::allocator<unsigned long>>::_Vector_impl" = type { %"struct.std::_Vector_base<unsigned long, std::allocator<unsigned long>>::_Vector_impl_data" }
%"struct.std::_Vector_base<unsigned long, std::allocator<unsigned long>>::_Vector_impl_data" = type { ptr, ptr, ptr }
%"class.std::vector.7" = type { %"struct.std::_Vector_base.8" }
%"struct.std::_Vector_base.8" = type { %"struct.std::_Vector_base<long, std::allocator<long>>::_Vector_impl" }
%"struct.std::_Vector_base<long, std::allocator<long>>::_Vector_impl" = type { %"struct.std::_Vector_base<long, std::allocator<long>>::_Vector_impl_data" }
%"struct.std::_Vector_base<long, std::allocator<long>>::_Vector_impl_data" = type { ptr, ptr, ptr }
%"class.std::vector.12" = type { %"struct.std::_Vector_base.13" }
%"struct.std::_Vector_base.13" = type { %"struct.std::_Vector_base<_cl_platform_id *, std::allocator<_cl_platform_id *>>::_Vector_impl" }
%"struct.std::_Vector_base<_cl_platform_id *, std::allocator<_cl_platform_id *>>::_Vector_impl" = type { %"struct.std::_Vector_base<_cl_platform_id *, std::allocator<_cl_platform_id *>>::_Vector_impl_data" }
%"struct.std::_Vector_base<_cl_platform_id *, std::allocator<_cl_platform_id *>>::_Vector_impl_data" = type { ptr, ptr, ptr }
%"class.cv::Point_" = type { i32, i32 }
%"class.cv::Size_" = type { i32, i32 }
%"class.cv::Rect_" = type { i32, i32, i32, i32 }
%"class.cv::UMat" = type { i32, i32, i32, i32, ptr, i32, ptr, i64, %"struct.cv::MatSize", %"struct.cv::MatStep" }
%"class.cv::_InputArray" = type { i32, ptr, %"class.cv::Size_" }
%"class.cv::_OutputArray" = type { %"class.cv::_InputArray" }

; Function Attrs: inlinehint mustprogress uwtable
define linkonce_odr hidden void @_ZN2cv11_InputArrayC2Ev(ptr noundef nonnull align 8 dereferenceable(24) %0) unnamed_addr #6 comdat align 2 {
  %2 = alloca ptr, align 8
  store ptr %0, ptr %2, align 8, !tbaa !161
  %3 = load ptr, ptr %2, align 8
  %4 = getelementptr inbounds nuw %"class.cv::_InputArray", ptr %3, i32 0, i32 2
  call void @_ZN2cv5Size_IiEC2Ev(ptr noundef nonnull align 4 dereferenceable(8) %4)
  call void @_ZN2cv11_InputArray4initEiPKv(ptr noundef nonnull align 8 dereferenceable(24) %3, i32 noundef 0, ptr noundef null)
  ret void
}

; Function Attrs: inlinehint mustprogress nounwind uwtable
define linkonce_odr hidden void @_ZN2cv11_InputArray4initEiPKv(ptr noundef nonnull align 8 dereferenceable(24) %0, i32 noundef %1, ptr noundef %2) #12 comdat align 2 {
  %4 = alloca ptr, align 8
  %5 = alloca i32, align 4
  %6 = alloca ptr, align 8
  store ptr %0, ptr %4, align 8, !tbaa !161
  store i32 %1, ptr %5, align 4, !tbaa !91
  store ptr %2, ptr %6, align 8, !tbaa !89
  %7 = load ptr, ptr %4, align 8
  %8 = load i32, ptr %5, align 4, !tbaa !91
  %9 = getelementptr inbounds nuw %"class.cv::_InputArray", ptr %7, i32 0, i32 0
  store i32 %8, ptr %9, align 8, !tbaa !245
  %10 = load ptr, ptr %6, align 8, !tbaa !89
  %11 = getelementptr inbounds nuw %"class.cv::_InputArray", ptr %7, i32 0, i32 1
  store ptr %10, ptr %11, align 8, !tbaa !247
  ret void
}

; Function Attrs: inlinehint mustprogress nounwind uwtable
define linkonce_odr hidden void @_ZN2cv5Size_IiEC2Ev(ptr noundef nonnull align 4 dereferenceable(8) %0) unnamed_addr #12 comdat align 2 {
  %2 = alloca ptr, align 8
  store ptr %0, ptr %2, align 8, !tbaa !149
  %3 = load ptr, ptr %2, align 8
  %4 = getelementptr inbounds nuw %"class.cv::Size_", ptr %3, i32 0, i32 0
  store i32 0, ptr %4, align 4, !tbaa !151
  %5 = getelementptr inbounds nuw %"class.cv::Size_", ptr %3, i32 0, i32 1
  store i32 0, ptr %5, align 4, !tbaa !153
  ret void
}

; Function Attrs: inlinehint mustprogress nounwind uwtable
define linkonce_odr hidden void @_ZN2cv11_InputArrayD2Ev(ptr noundef nonnull align 8 dereferenceable(24) %0) unnamed_addr #12 comdat align 2 {
  %2 = alloca ptr, align 8
  store ptr %0, ptr %2, align 8, !tbaa !161
  ret void
}

; Function Attrs: inlinehint mustprogress uwtable
define linkonce_odr hidden void @_ZN2cv12_OutputArrayC2ERNS_4UMatE(ptr noundef nonnull align 8 dereferenceable(24) %0, ptr noundef nonnull align 8 dereferenceable(80) %1) unnamed_addr #6 comdat align 2 {
  %3 = alloca ptr, align 8
  %4 = alloca ptr, align 8
  store ptr %0, ptr %3, align 8, !tbaa !163
  store ptr %1, ptr %4, align 8, !tbaa !138
  %5 = load ptr, ptr %3, align 8
  call void @_ZN2cv11_InputArrayC2Ev(ptr noundef nonnull align 8 dereferenceable(24) %5)
  %6 = load ptr, ptr %4, align 8, !tbaa !138
  call void @_ZN2cv11_InputArray4initEiPKv(ptr noundef nonnull align 8 dereferenceable(24) %5, i32 noundef 34209792, ptr noundef %6)
  ret void
}

; Function Attrs: inlinehint mustprogress uwtable
define linkonce_odr hidden void @_ZN2cv11_InputArrayC2ERKNS_4UMatE(ptr noundef nonnull align 8 dereferenceable(24) %0, ptr noundef nonnull align 8 dereferenceable(80) %1) unnamed_addr #6 comdat align 2 {
  %3 = alloca ptr, align 8
  %4 = alloca ptr, align 8
  store ptr %0, ptr %3, align 8, !tbaa !161
  store ptr %1, ptr %4, align 8, !tbaa !138
  %5 = load ptr, ptr %3, align 8
  %6 = getelementptr inbounds nuw %"class.cv::_InputArray", ptr %5, i32 0, i32 2
  call void @_ZN2cv5Size_IiEC2Ev(ptr noundef nonnull align 4 dereferenceable(8) %6)
  %7 = load ptr, ptr %4, align 8, !tbaa !138
  call void @_ZN2cv11_InputArray4initEiPKv(ptr noundef nonnull align 8 dereferenceable(24) %5, i32 noundef 17432576, ptr noundef %7)
  ret void
}

; Function Attrs: inlinehint mustprogress nounwind uwtable
define linkonce_odr hidden void @_ZN2cv5Rect_IiEC2ERKNS_6Point_IiEERKNS_5Size_IiEE(ptr noundef nonnull align 4 dereferenceable(16) %0, ptr noundef nonnull align 4 dereferenceable(8) %1, ptr noundef nonnull align 4 dereferenceable(8) %2) unnamed_addr #12 comdat align 2 {
  %4 = alloca ptr, align 8
  %5 = alloca ptr, align 8
  %6 = alloca ptr, align 8
  store ptr %0, ptr %4, align 8, !tbaa !154
  store ptr %1, ptr %5, align 8, !tbaa !144
  store ptr %2, ptr %6, align 8, !tbaa !149
  %7 = load ptr, ptr %4, align 8
  %8 = getelementptr inbounds nuw %"class.cv::Rect_", ptr %7, i32 0, i32 0
  %9 = load ptr, ptr %5, align 8, !tbaa !144
  %10 = getelementptr inbounds nuw %"class.cv::Point_", ptr %9, i32 0, i32 0
  %11 = load i32, ptr %10, align 4, !tbaa !146
  store i32 %11, ptr %8, align 4, !tbaa !156
  %12 = getelementptr inbounds nuw %"class.cv::Rect_", ptr %7, i32 0, i32 1
  %13 = load ptr, ptr %5, align 8, !tbaa !144
  %14 = getelementptr inbounds nuw %"class.cv::Point_", ptr %13, i32 0, i32 1
  %15 = load i32, ptr %14, align 4, !tbaa !148
  store i32 %15, ptr %12, align 4, !tbaa !158
  %16 = getelementptr inbounds nuw %"class.cv::Rect_", ptr %7, i32 0, i32 2
  %17 = load ptr, ptr %6, align 8, !tbaa !149
  %18 = getelementptr inbounds nuw %"class.cv::Size_", ptr %17, i32 0, i32 0
  %19 = load i32, ptr %18, align 4, !tbaa !151
  store i32 %19, ptr %16, align 4, !tbaa !159
  %20 = getelementptr inbounds nuw %"class.cv::Rect_", ptr %7, i32 0, i32 3
  %21 = load ptr, ptr %6, align 8, !tbaa !149
  %22 = getelementptr inbounds nuw %"class.cv::Size_", ptr %21, i32 0, i32 1
  %23 = load i32, ptr %22, align 4, !tbaa !153
  store i32 %23, ptr %20, align 4, !tbaa !160
  ret void
}

; Function Attrs: inlinehint mustprogress nounwind uwtable
define linkonce_odr hidden void @_ZN2cv5Size_IiEC2Eii(ptr noundef nonnull align 4 dereferenceable(8) %0, i32 noundef %1, i32 noundef %2) unnamed_addr #12 comdat align 2 {
  %4 = alloca ptr, align 8
  %5 = alloca i32, align 4
  %6 = alloca i32, align 4
  store ptr %0, ptr %4, align 8, !tbaa !149
  store i32 %1, ptr %5, align 4, !tbaa !91
  store i32 %2, ptr %6, align 4, !tbaa !91
  %7 = load ptr, ptr %4, align 8
  %8 = getelementptr inbounds nuw %"class.cv::Size_", ptr %7, i32 0, i32 0
  %9 = load i32, ptr %5, align 4, !tbaa !91
  store i32 %9, ptr %8, align 4, !tbaa !151
  %10 = getelementptr inbounds nuw %"class.cv::Size_", ptr %7, i32 0, i32 1
  %11 = load i32, ptr %6, align 4, !tbaa !91
  store i32 %11, ptr %10, align 4, !tbaa !153
  ret void
}

; Function Attrs: inlinehint mustprogress nounwind uwtable
define linkonce_odr hidden void @_ZN2cv6Point_IiEC2Eii(ptr noundef nonnull align 4 dereferenceable(8) %0, i32 noundef %1, i32 noundef %2) unnamed_addr #12 comdat align 2 {
  %4 = alloca ptr, align 8
  %5 = alloca i32, align 4
  %6 = alloca i32, align 4
  store ptr %0, ptr %4, align 8, !tbaa !144
  store i32 %1, ptr %5, align 4, !tbaa !91
  store i32 %2, ptr %6, align 4, !tbaa !91
  %7 = load ptr, ptr %4, align 8
  %8 = getelementptr inbounds nuw %"class.cv::Point_", ptr %7, i32 0, i32 0
  %9 = load i32, ptr %5, align 4, !tbaa !91
  store i32 %9, ptr %8, align 4, !tbaa !146
  %10 = getelementptr inbounds nuw %"class.cv::Point_", ptr %7, i32 0, i32 1
  %11 = load i32, ptr %6, align 4, !tbaa !91
  store i32 %11, ptr %10, align 4, !tbaa !148
  ret void
}

; Function Attrs: mustprogress uwtable
define hidden noundef i32 @_ZN3App29process_cl_buffer_with_opencvEP7_cl_memmiiiRN2cv4UMatE(ptr noundef nonnull align 8 dereferenceable(1328) %0, ptr noundef %1, i64 noundef %2, i32 noundef %3, i32 noundef %4, i32 noundef %5, ptr noundef nonnull align 8 dereferenceable(80) %6) #4 align 2 personality ptr @__gxx_personality_v0 {
  %8 = alloca ptr, align 8
  %9 = alloca ptr, align 8
  %10 = alloca i64, align 8
  %11 = alloca i32, align 4
  %12 = alloca i32, align 4
  %13 = alloca i32, align 4
  %14 = alloca ptr, align 8
  %15 = alloca %"class.cv::Point_", align 4
  %16 = alloca %"class.cv::Size_", align 4
  %17 = alloca %"class.cv::Rect_", align 4
  %18 = alloca %"class.cv::UMat", align 8
  %19 = alloca %"class.cv::_InputArray", align 8
  %20 = alloca ptr, align 8
  %21 = alloca i32, align 4
  %22 = alloca %"class.cv::_OutputArray", align 8
  %23 = alloca %"class.cv::Size_", align 4
  %24 = alloca %"class.cv::Point_", align 4
  store ptr %0, ptr %8, align 8, !tbaa !4
  store ptr %1, ptr %9, align 8, !tbaa !115
  store i64 %2, ptr %10, align 8, !tbaa !99
  store i32 %3, ptr %11, align 4, !tbaa !91
  store i32 %4, ptr %12, align 4, !tbaa !91
  store i32 %5, ptr %13, align 4, !tbaa !91
  store ptr %6, ptr %14, align 8, !tbaa !138
  %25 = load ptr, ptr %8, align 8
  %26 = load ptr, ptr %9, align 8, !tbaa !115
  %27 = load i64, ptr %10, align 8, !tbaa !99
  %28 = load i32, ptr %11, align 4, !tbaa !91
  %29 = load i32, ptr %12, align 4, !tbaa !91
  %30 = load i32, ptr %13, align 4, !tbaa !91
  %31 = load ptr, ptr %14, align 8, !tbaa !138
  call void @_ZN2cv3ocl17convertFromBufferEPvmiiiRNS_4UMatE(ptr noundef %26, i64 noundef %27, i32 noundef %28, i32 noundef %29, i32 noundef %30, ptr noundef nonnull align 8 dereferenceable(80) %31)
  call void @llvm.lifetime.start.p0(i64 8, ptr %15) #3
  %32 = load ptr, ptr %14, align 8, !tbaa !138
  %33 = getelementptr inbounds nuw %"class.cv::UMat", ptr %32, i32 0, i32 3
  %34 = load i32, ptr %33, align 4, !tbaa !140
  %35 = sdiv i32 %34, 2
  call void @_ZN2cv6Point_IiEC2Eii(ptr noundef nonnull align 4 dereferenceable(8) %15, i32 noundef %35, i32 noundef 0)
  call void @llvm.lifetime.start.p0(i64 8, ptr %16) #3
  %36 = load ptr, ptr %14, align 8, !tbaa !138
  %37 = getelementptr inbounds nuw %"class.cv::UMat", ptr %36, i32 0, i32 3
  %38 = load i32, ptr %37, align 4, !tbaa !140
  %39 = sdiv i32 %38, 2
  %40 = load ptr, ptr %14, align 8, !tbaa !138
  %41 = getelementptr inbounds nuw %"class.cv::UMat", ptr %40, i32 0, i32 2
  %42 = load i32, ptr %41, align 8, !tbaa !143
  call void @_ZN2cv5Size_IiEC2Eii(ptr noundef nonnull align 4 dereferenceable(8) %16, i32 noundef %39, i32 noundef %42)
  call void @llvm.lifetime.start.p0(i64 16, ptr %17) #3
  call void @_ZN2cv5Rect_IiEC2ERKNS_6Point_IiEERKNS_5Size_IiEE(ptr noundef nonnull align 4 dereferenceable(16) %17, ptr noundef nonnull align 4 dereferenceable(8) %15, ptr noundef nonnull align 4 dereferenceable(8) %16)
  call void @llvm.lifetime.start.p0(i64 80, ptr %18) #3
  %43 = load ptr, ptr %14, align 8, !tbaa !138
  call void @_ZN2cv4UMatC1ERKS0_RKNS_5Rect_IiEE(ptr noundef nonnull align 8 dereferenceable(80) %18, ptr noundef nonnull align 8 dereferenceable(80) %43, ptr noundef nonnull align 4 dereferenceable(16) %17)
  call void @llvm.lifetime.start.p0(i64 24, ptr %19) #3
  invoke void @_ZN2cv11_InputArrayC2ERKNS_4UMatE(ptr noundef nonnull align 8 dereferenceable(24) %19, ptr noundef nonnull align 8 dereferenceable(80) %18)
          to label %44 unwind label %57

44:                                               ; preds = %7
  call void @llvm.lifetime.start.p0(i64 24, ptr %22) #3
  invoke void @_ZN2cv12_OutputArrayC2ERNS_4UMatE(ptr noundef nonnull align 8 dereferenceable(24) %22, ptr noundef nonnull align 8 dereferenceable(80) %18)
          to label %45 unwind label %61

45:                                               ; preds = %44
  invoke void @_ZN2cv5Size_IiEC2Eii(ptr noundef nonnull align 4 dereferenceable(8) %23, i32 noundef 7, i32 noundef 7)
          to label %46 unwind label %65

46:                                               ; preds = %45
  invoke void @_ZN2cv6Point_IiEC2Eii(ptr noundef nonnull align 4 dereferenceable(8) %24, i32 noundef -3, i32 noundef -3)
          to label %47 unwind label %65

47:                                               ; preds = %46
  %48 = load i64, ptr %23, align 4
  %49 = load i64, ptr %24, align 4
  invoke void @_ZN2cv4blurERKNS_11_InputArrayERKNS_12_OutputArrayENS_5Size_IiEENS_6Point_IiEEi(ptr noundef nonnull align 8 dereferenceable(24) %19, ptr noundef nonnull align 8 dereferenceable(24) %22, i64 %48, i64 %49, i32 noundef 4)
          to label %50 unwind label %65

50:                                               ; preds = %47
  call void @_ZN2cv11_InputArrayD2Ev(ptr noundef nonnull align 8 dereferenceable(24) %22) #3
  call void @llvm.lifetime.end.p0(i64 24, ptr %22) #3
  call void @_ZN2cv11_InputArrayD2Ev(ptr noundef nonnull align 8 dereferenceable(24) %19) #3
  call void @llvm.lifetime.end.p0(i64 24, ptr %19) #3
  %51 = load ptr, ptr %9, align 8, !tbaa !115
  %52 = icmp ne ptr %51, null
  br i1 %52, label %53, label %75

53:                                               ; preds = %50
  %54 = load ptr, ptr %9, align 8, !tbaa !115
  %55 = invoke i32 @clReleaseMemObject(ptr noundef %54)
          to label %56 unwind label %71

56:                                               ; preds = %53
  br label %75

57:                                               ; preds = %7
  %58 = landingpad { ptr, i32 }
          cleanup
  %59 = extractvalue { ptr, i32 } %58, 0
  store ptr %59, ptr %20, align 8
  %60 = extractvalue { ptr, i32 } %58, 1
  store i32 %60, ptr %21, align 4
  br label %70

61:                                               ; preds = %44
  %62 = landingpad { ptr, i32 }
          cleanup
  %63 = extractvalue { ptr, i32 } %62, 0
  store ptr %63, ptr %20, align 8
  %64 = extractvalue { ptr, i32 } %62, 1
  store i32 %64, ptr %21, align 4
  br label %69

65:                                               ; preds = %47, %46, %45
  %66 = landingpad { ptr, i32 }
          cleanup
  %67 = extractvalue { ptr, i32 } %66, 0
  store ptr %67, ptr %20, align 8
  %68 = extractvalue { ptr, i32 } %66, 1
  store i32 %68, ptr %21, align 4
  call void @_ZN2cv11_InputArrayD2Ev(ptr noundef nonnull align 8 dereferenceable(24) %22) #3
  br label %69

69:                                               ; preds = %65, %61
  call void @llvm.lifetime.end.p0(i64 24, ptr %22) #3
  call void @_ZN2cv11_InputArrayD2Ev(ptr noundef nonnull align 8 dereferenceable(24) %19) #3
  br label %70

70:                                               ; preds = %69, %57
  call void @llvm.lifetime.end.p0(i64 24, ptr %19) #3
  br label %77

71:                                               ; preds = %53
  %72 = landingpad { ptr, i32 }
          cleanup
  %73 = extractvalue { ptr, i32 } %72, 0
  store ptr %73, ptr %20, align 8
  %74 = extractvalue { ptr, i32 } %72, 1
  store i32 %74, ptr %21, align 4
  br label %77

75:                                               ; preds = %56, %50
  %76 = getelementptr inbounds nuw %class.App, ptr %25, i32 0, i32 23
  store ptr null, ptr %76, align 8, !tbaa !75
  call void @_ZN2cv4UMatD1Ev(ptr noundef nonnull align 8 dereferenceable(80) %18) #3
  call void @llvm.lifetime.end.p0(i64 80, ptr %18) #3
  call void @llvm.lifetime.end.p0(i64 16, ptr %17) #3
  call void @llvm.lifetime.end.p0(i64 8, ptr %16) #3
  call void @llvm.lifetime.end.p0(i64 8, ptr %15) #3
  ret i32 0

77:                                               ; preds = %71, %70
  call void @_ZN2cv4UMatD1Ev(ptr noundef nonnull align 8 dereferenceable(80) %18) #3
  call void @llvm.lifetime.end.p0(i64 80, ptr %18) #3
  call void @llvm.lifetime.end.p0(i64 16, ptr %17) #3
  call void @llvm.lifetime.end.p0(i64 8, ptr %16) #3
  call void @llvm.lifetime.end.p0(i64 8, ptr %15) #3
  br label %78

78:                                               ; preds = %77
  %79 = load ptr, ptr %20, align 8
  %80 = load i32, ptr %21, align 4
  %81 = insertvalue { ptr, i32 } poison, ptr %79, 0
  %82 = insertvalue { ptr, i32 } %81, i32 %80, 1
  resume { ptr, i32 } %82
}