; Function Attrs: mustprogress uwtable
define hidden noundef i32 @_ZN3App29process_cl_buffer_with_opencvEP7_cl_memmiiiRN2cv4UMatE(ptr noundef nonnull writeonly align 8 captures(none) dereferenceable(1328) %0, ptr noundef %1, i64 noundef %2, i32 noundef %3, i32 noundef %4, i32 noundef %5, ptr noundef nonnull align 8 dereferenceable(80) %6) local_unnamed_addr #3 align 2 personality ptr @__gxx_personality_v0 {
  %8 = alloca %"class.cv::Rect_", align 4
  %9 = alloca %"class.cv::UMat", align 8
  %10 = alloca %"class.cv::_InputArray", align 8
  %11 = alloca %"class.cv::_OutputArray", align 8
  tail call void @_ZN2cv3ocl17convertFromBufferEPvmiiiRNS_4UMatE(ptr noundef %1, i64 noundef %2, i32 noundef %3, i32 noundef %4, i32 noundef %5, ptr noundef nonnull align 8 dereferenceable(80) %6)
  %12 = getelementptr inbounds nuw i8, ptr %6, i64 12
  %13 = load i32, ptr %12, align 4, !tbaa !124
  %14 = sdiv i32 %13, 2
  %15 = getelementptr inbounds nuw i8, ptr %6, i64 8
  %16 = load i32, ptr %15, align 8, !tbaa !127
  call void @llvm.lifetime.start.p0(i64 16, ptr nonnull %8) #23
  store i32 %14, ptr %8, align 4, !tbaa !128
  %17 = getelementptr inbounds nuw i8, ptr %8, i64 4
  store i32 0, ptr %17, align 4, !tbaa !130
  %18 = getelementptr inbounds nuw i8, ptr %8, i64 8
  store i32 %14, ptr %18, align 4, !tbaa !131
  %19 = getelementptr inbounds nuw i8, ptr %8, i64 12
  store i32 %16, ptr %19, align 4, !tbaa !132
  call void @llvm.lifetime.start.p0(i64 80, ptr nonnull %9) #23
  call void @_ZN2cv4UMatC1ERKS0_RKNS_5Rect_IiEE(ptr noundef nonnull align 8 dereferenceable(80) %9, ptr noundef nonnull align 8 dereferenceable(80) %6, ptr noundef nonnull align 4 dereferenceable(16) %8)
  call void @llvm.lifetime.start.p0(i64 24, ptr nonnull %10) #23
  %20 = getelementptr inbounds nuw i8, ptr %10, i64 16
  store i32 0, ptr %20, align 8, !tbaa !133
  %21 = getelementptr inbounds nuw i8, ptr %10, i64 20
  store i32 0, ptr %21, align 4, !tbaa !135
  store i32 17432576, ptr %10, align 8, !tbaa !136
  %22 = getelementptr inbounds nuw i8, ptr %10, i64 8
  store ptr %9, ptr %22, align 8, !tbaa !138
  call void @llvm.lifetime.start.p0(i64 24, ptr nonnull %11) #23
  %23 = getelementptr inbounds nuw i8, ptr %11, i64 8
  %24 = getelementptr inbounds nuw i8, ptr %11, i64 16
  store i64 0, ptr %24, align 8
  store i32 34209792, ptr %11, align 8, !tbaa !136
  store ptr %9, ptr %23, align 8, !tbaa !138
  invoke void @_ZN2cv4blurERKNS_11_InputArrayERKNS_12_OutputArrayENS_5Size_IiEENS_6Point_IiEEi(ptr noundef nonnull align 8 dereferenceable(24) %10, ptr noundef nonnull align 8 dereferenceable(24) %11, i64 30064771079, i64 -8589934595, i32 noundef 4)
          to label %25 unwind label %28

25:                                               ; preds = %7
  call void @llvm.lifetime.end.p0(i64 24, ptr nonnull %11) #23
  call void @llvm.lifetime.end.p0(i64 24, ptr nonnull %10) #23
  %.not = icmp eq ptr %1, null
  br i1 %.not, label %32, label %26

26:                                               ; preds = %25
  %27 = invoke i32 @clReleaseMemObject(ptr noundef nonnull %1)
          to label %32 unwind label %30

28:                                               ; preds = %7
  %29 = landingpad { ptr, i32 }
          cleanup
  call void @llvm.lifetime.end.p0(i64 24, ptr nonnull %11) #23
  call void @llvm.lifetime.end.p0(i64 24, ptr nonnull %10) #23
  br label %34

30:                                               ; preds = %26
  %31 = landingpad { ptr, i32 }
          cleanup
  br label %34

32:                                               ; preds = %26, %25
  %33 = getelementptr inbounds nuw i8, ptr %0, i64 1320
  store ptr null, ptr %33, align 8, !tbaa !98
  call void @_ZN2cv4UMatD1Ev(ptr noundef nonnull align 8 dereferenceable(80) %9) #23
  call void @llvm.lifetime.end.p0(i64 80, ptr nonnull %9) #23
  call void @llvm.lifetime.end.p0(i64 16, ptr nonnull %8) #23
  ret i32 0

34:                                               ; preds = %30, %28
  %.pn20 = phi { ptr, i32 } [ %31, %30 ], [ %29, %28 ]
  call void @_ZN2cv4UMatD1Ev(ptr noundef nonnull align 8 dereferenceable(80) %9) #23
  call void @llvm.lifetime.end.p0(i64 80, ptr nonnull %9) #23
  call void @llvm.lifetime.end.p0(i64 16, ptr nonnull %8) #23
  resume { ptr, i32 } %.pn20
}